CCS PCM C Compiler, Version 4.084, 46530               13-Oct-12 15:04

               Filename: HondaHybrid.lst

               ROM used: 1111 words (29%)
                         Largest free fragment is 1788
               RAM used: 48 (27%) at main() level
                         66 (37%) worst case
               Stack:    2 worst case (1 in main + 1 for interrupts)

*
0000:  NOP
0001:  MOVLW  00
0002:  MOVWF  0A
0003:  GOTO   376
0004:  MOVWF  7F
0005:  SWAPF  03,W
0006:  CLRF   03
0007:  MOVWF  26
0008:  MOVF   7F,W
0009:  MOVWF  25
000A:  MOVF   0A,W
000B:  MOVWF  2D
000C:  CLRF   0A
000D:  SWAPF  25,F
000E:  MOVF   04,W
000F:  MOVWF  27
0010:  MOVF   20,W
0011:  MOVWF  28
0012:  MOVF   21,W
0013:  MOVWF  29
0014:  MOVF   22,W
0015:  MOVWF  2A
0016:  MOVF   23,W
0017:  MOVWF  2B
0018:  MOVF   24,W
0019:  MOVWF  2C
001A:  BCF    03.7
001B:  BCF    03.5
001C:  MOVLW  8C
001D:  MOVWF  04
001E:  BTFSS  00.0
001F:  GOTO   022
0020:  BTFSC  0C.0
0021:  GOTO   03F
0022:  MOVLW  8D
0023:  MOVWF  04
0024:  BTFSS  00.0
0025:  GOTO   028
0026:  BTFSC  0D.0
0027:  GOTO   041
0028:  BTFSS  0B.5
0029:  GOTO   02C
002A:  BTFSC  0B.2
002B:  GOTO   043
002C:  MOVF   27,W
002D:  MOVWF  04
002E:  MOVF   28,W
002F:  MOVWF  20
0030:  MOVF   29,W
0031:  MOVWF  21
0032:  MOVF   2A,W
0033:  MOVWF  22
0034:  MOVF   2B,W
0035:  MOVWF  23
0036:  MOVF   2C,W
0037:  MOVWF  24
0038:  MOVF   2D,W
0039:  MOVWF  0A
003A:  SWAPF  26,W
003B:  MOVWF  03
003C:  SWAPF  7F,F
003D:  SWAPF  7F,W
003E:  RETFIE
003F:  BCF    0A.3
0040:  GOTO   049
0041:  BCF    0A.3
0042:  GOTO   090
0043:  BCF    0A.3
0044:  GOTO   045
.................... #include "C:\Documents and Settings\Enter\My Documents\Hybrid\Hybrid-v2\HondaHybrid.h" 
.................... #include <16F873A.h> 
.................... //////// Standard Header file for the PIC16F873A device //////////////// 
.................... #device PIC16F873A 
.................... #list 
....................  
....................  
.................... //#include <16F737.h> 
.................... #device ICD=TRUE 
.................... #device adc=10 
.................... //#device adc=8 
.................... #use delay(clock=20000000) 
*
00AB:  MOVLW  03
00AC:  SUBWF  47,F
00AD:  BTFSS  03.0
00AE:  GOTO   0B8
00AF:  MOVLW  47
00B0:  MOVWF  04
00B1:  MOVF   00,W
00B2:  BTFSC  03.2
00B3:  GOTO   0B8
00B4:  GOTO   0B6
00B5:  GOTO   0B6
00B6:  DECFSZ 00,F
00B7:  GOTO   0B5
00B8:  RETLW  00
.................... #fuses HS,PUT,NOWDT 
.................... #use rs232 (DEBUGGER) 
.................... #include <mcp4921.c> 
.................... //////////////// Driver for MCP4921 D/A Converter /////////////////////// 
.................... ////                                                                 //// 
.................... ////  init_dac()    Call this before using a MCP4921 DAC             //// 
.................... ////                                                                 //// 
.................... ////  write_dac( long int )   Writes command and 12 bit resolution   //// 
.................... ////                          to the MCP4921 which converts it to a  //// 
.................... ////                          voltage                                //// 
.................... ////                          0-4095 input represents 0-vref V out.  //// 
.................... ////                                                                 //// 
.................... ///////////////////////////////////////////////////////////////////////// 
.................... ////        (C) Copyright 1996,2003 Custom Computer Services         //// 
.................... //// This source code may only be used by licensed users of the CCS  //// 
.................... //// C compiler.  This source code may only be distributed to other  //// 
.................... //// licensed users of the CCS C compiler.  No other use,            //// 
.................... //// reproduction or distribution is permitted without written       //// 
.................... //// permission.  Derivative programs created using this software    //// 
.................... //// in object code form are not restricted in any way.              //// 
.................... ///////////////////////////////////////////////////////////////////////// 
....................  
.................... #ifndef EEPROM_SELECT 
....................  
.................... #define DAC_CS     PIN_C4 
.................... #define DAC_CLK    PIN_C3 
.................... #define DAC_DI     PIN_C5 
.................... #define DAC_LDAC   PIN_B4 
....................  
.................... #endif 
....................  
.................... void init_dac() 
.................... { 
....................    output_high(DAC_CS); 
*
0093:  BCF    2E.4
0094:  MOVF   2E,W
0095:  BSF    03.5
0096:  MOVWF  07
0097:  BCF    03.5
0098:  BSF    07.4
....................    output_high(DAC_LDAC); 
0099:  BSF    03.5
009A:  BCF    06.4
009B:  BCF    03.5
009C:  BSF    06.4
....................    output_high(DAC_CLK); 
009D:  BCF    2E.3
009E:  MOVF   2E,W
009F:  BSF    03.5
00A0:  MOVWF  07
00A1:  BCF    03.5
00A2:  BSF    07.3
....................    output_high(DAC_DI); 
00A3:  BCF    2E.5
00A4:  MOVF   2E,W
00A5:  BSF    03.5
00A6:  MOVWF  07
00A7:  BCF    03.5
00A8:  BSF    07.5
.................... } 
00A9:  BCF    0A.3
00AA:  GOTO   3C5 (RETURN)
....................  
.................... void write_dac(int16 data) { 
....................    BYTE cmd[3]; 
....................    BYTE i; 
....................  
....................    cmd[0]=data; 
....................    cmd[1]=(data>>8); 
....................    cmd[2]=0x03;                            
....................     
....................    output_high(DAC_LDAC); 
....................    output_low(DAC_CLK); 
....................    output_low(DAC_CS); 
....................  
....................    for(i=0; i<=23; ++i) 
....................    { 
....................       if(i<4 || (i>7 && i<12)) 
....................          shift_left(cmd,3,0); 
....................       else 
....................       { 
....................          output_bit(DAC_DI, shift_left(cmd,3,0)); 
....................  
....................          output_high(DAC_CLK); 
....................          output_low(DAC_CLK); 
....................       } 
....................    } 
....................    output_high(DAC_CS); 
....................  
....................    output_low(DAC_LDAC); 
....................    delay_us(10); 
....................     
....................    output_HIGH(DAC_LDAC); 
.................... } 
....................  
....................  
....................  
....................  
.................... /* 
.................... This is the main controller for the super capacitor hybrid scooter a.k.a RED 
.................... B2 close contactor 
.................... CONTROL BOX INPUTS 
.................... Athrottle- A0 - analog input representing the users input for speed, 10 bit 
.................... Vspeed - CCp2-a 16 bit representation of the speed of the vehicle 
.................... Acaps- A1 - analog input representing the current voltage of the supercapacitors, 10 bit 
....................  
.................... CONTROL BOX OUTPUT 
.................... ICEthrottle- B1 - a 16 bit number sent to the internal combustion engine(ICE) throttle  
.................... ELECthrottle-  - a 16 bit number sent as analog value representing the demanded electric power 
....................  
.................... SPECIFICS OF I/O 
....................  
.................... Athrottle - the electric throttle is a 3 wire unit with a 5 volt,ground, and analog out 
....................    representing how far throttle is turned. Pin AN0 is the input. 
....................     
.................... Vspeed - There is a encoder in the rear wheel/electric motor that is used by the electric 
....................    power controller. Tapping in to this this Main Controller receives a 5 Volt square wave 
....................    with 42 pulses. There are two options for measuring speed. The first is to measure the  
....................    length of the pulses. The second is to measure the rate of pulses. This controller currently 
....................    uses the rate method. The int_ccp2 interupt is called on each falling edge and stores the  
....................    Vspeed value as the max number of 16bit (65535-timer0_since_last_reset).  
....................     
....................    The RED scooter has a circumpherence of 16.3*2*pi = 102.4 
....................    X m/h * 63360 inch/mile * 1/3600 h/sec * 1/(102.4 inch/rev) = .171875* X 
....................    Examples 50 mph is 8.9 ms 1 overflow of timer0 
....................    Example 5 mph is 89 ms or 13 time overflow 
....................     
....................    #int_timer0 increments the counter number_of_overflows each time it overflows 
....................    On int ccp2 we multiply number_of_overflows * 256 + timer0 to get timer0_since_last_reset 
....................     
.................... Acaps - the analog voltage which is the 5volt representation of the voltage in the caps which 
....................    have a value of between 0-48v. The voltages are factored so that the voltage on AN1 goes 
....................    from 0 - 4.8 volts (TODO check this factor, think its 1/11 not 1/10) 
....................     
.................... ICEthrottle -  #int_timer1 is set to make sure the period follows the required below 
....................    The period for the servo is .020 seconds which is 50,000 operations 
....................    The leftmost position of the server is .001 seconds which is 2,500 
....................    The rightmost position of the server is .002 seconds which is 5,000 
....................     
....................    The output pin is pin_B1.-> 
....................  
.................... ELECthrottle 
....................    The electric power controller takes an analog voltage as input. The output voltage 
....................    is set by the DAC. The pins used are C3,C4,C5. if CHARGING_STATE is true then  
....................     
.................... ALGORITHM 
....................    The algorithm is basically a PID controller. In broad terms we are trying to set the 
....................    ICEthrottle and ICEelectric to maximize the use of electric and accelerate to meet the 
....................    requirements set by the rider with the Athrottle signal. When the demanded power is  
....................    less than the power output possible by the ICE and the caps are in the CHARGING_STATE  
....................    then the ICE is turned up to the max and the ELECthrottle is set to regen to 
....................    charge the capacitors.If CHARGING_STATE is false then the caps are supplying the drivig power 
....................    and the ICE is set to "off", the caps supply the power. Unless the user requested supply 
....................    is enough to require both power sources. 
....................     
....................    If CHARGING_STATE is true. Then pin_b2 is set as high which will close the brake number 
....................    for the electric power controller.  
....................     
....................    If CHARGING_STATE is false then the pin_b2 is set low which opens brake. 
....................     
....................     
....................  
....................  
.................... The encoder has 42 on and offs per rotation, i.e. 21 steps 
....................  
.................... Number of operations per second is CLOCK/4/Timer Divisions 
.................... Number of operations per second is 20,000,000/4/128 = 39062.5  
.................... Each operation takes 1/39062.5 = .256 micro (x10^-6) seconds 
.................... Seconds to Overflow timer0 8bit timer = .256x10^-6 * 256 = 6.55ms 
....................  
....................  
....................  
.................... */ 
.................... #define servo_pin PIN_B1  //Setting servo out pin to be hardware pin b1 
.................... #define ADC_DELAY delay_us(200) 
.................... #define Acaps_pin PIN_A1 
.................... #define Acaps_channel 1 
.................... #define Athrottle_pin PIN_A0 
.................... #define Athrottle_channel 0 
....................  
.................... static int16 left_position = 2500; 
*
0387:  MOVLW  C4
0388:  MOVWF  2F
0389:  MOVLW  09
038A:  MOVWF  30
.................... static int16 right_position = 5000; 
038B:  MOVLW  88
038C:  MOVWF  31
038D:  MOVLW  13
038E:  MOVWF  32
.................... static int16 servo_period   = 65356-50000; 
038F:  MOVLW  FC
0390:  MOVWF  33
0391:  MOVLW  3B
0392:  MOVWF  34
.................... unsigned int16 current_servo_position=2500; 
0393:  MOVLW  C4
0394:  MOVWF  35
0395:  MOVLW  09
0396:  MOVWF  36
.................... int1 SERVO_PIN_TO_BE_SET_HIGH_ON_NEXT_TIMER = 0; 
0397:  BCF    37.0
....................  
.................... int1 test_switch = 0; 
0398:  BCF    37.1
.................... unsigned int16 test_counter = 0; 
0399:  CLRF   38
039A:  CLRF   39
....................  
.................... unsigned int8 number_of_timer0_interupts_since_reset =0; 
039B:  CLRF   3A
.................... unsigned int16 timer0_since_last_reset= 0; 
039C:  CLRF   3B
039D:  CLRF   3C
.................... unsigned int16 vSpeed= 0; 
039E:  CLRF   3D
039F:  CLRF   3E
.................... unsigned int16 ELECthrottle = 0; 
03A0:  CLRF   3F
03A1:  CLRF   40
.................... unsigned int16 ICEthrottle = 0; 
03A2:  CLRF   41
03A3:  CLRF   42
.................... unsigned int16 Athrottle = 0; 
03A4:  CLRF   43
03A5:  CLRF   44
.................... unsigned int16 Acaps = 0; 
03A6:  CLRF   45
03A7:  CLRF   46
.................... int1 CURRENTLY_CHARGING = 0; 
03A8:  BCF    37.2
....................  
.................... /* 
.................... The #int_timer0 interupt is triggered on each timer0 8bit interupt 
.................... the function simply increments a overflow counter to be used by the ccp2 
.................... interupt to calculate speed 
.................... NUMBER OF OPERATIONS =  
.................... */ 
.................... #int_timer0 
.................... void timer0_isr(){ 
.................... number_of_timer0_interupts_since_reset++; 
*
0045:  INCF   3A,F
.................... } 
....................  
.................... /* 
.................... #int_timer1 is used by the ICEservo throttle to regulate the timing pulses. The  
.................... timer is setup for a pulsetrain of 20ms period. This is done as follows, 
....................  
.................... Period is 1/(CLOCK/4opsperclock)*(startingPostionOfClock) = 20 ms 
.................... for this setup 1/(20000000/4)*(50000) = 20 ms 
....................  
.................... The timer1 starts at 0 and counts up. So we set the beggining of the clock at 
.................... servo_period which is 65356-50000 so that the total time is 20ms. 
.................... */ 
0046:  BCF    0B.2
0047:  BCF    0A.3
0048:  GOTO   02C
.................... #int_timer1 
.................... void isr() 
.................... { 
....................  
.................... //Make sure that the position is within the left and right positions of the servo 
....................    if (current_servo_position<left_position){ 
0049:  MOVF   36,W
004A:  SUBWF  30,W
004B:  BTFSS  03.0
004C:  GOTO   058
004D:  BTFSS  03.2
004E:  GOTO   053
004F:  MOVF   2F,W
0050:  SUBWF  35,W
0051:  BTFSC  03.0
0052:  GOTO   058
....................       current_servo_position = left_position; 
0053:  MOVF   30,W
0054:  MOVWF  36
0055:  MOVF   2F,W
0056:  MOVWF  35
....................    } 
....................    else if (current_servo_position > right_position){ 
0057:  GOTO   066
0058:  MOVF   32,W
0059:  SUBWF  36,W
005A:  BTFSS  03.0
005B:  GOTO   066
005C:  BTFSS  03.2
005D:  GOTO   062
005E:  MOVF   35,W
005F:  SUBWF  31,W
0060:  BTFSC  03.0
0061:  GOTO   066
....................       current_servo_position = left_position; 
0062:  MOVF   30,W
0063:  MOVWF  36
0064:  MOVF   2F,W
0065:  MOVWF  35
....................    } 
....................  
....................    if(SERVO_PIN_TO_BE_SET_HIGH_ON_NEXT_TIMER) 
0066:  BTFSS  37.0
0067:  GOTO   07B
....................       {  
....................          output_high(servo_pin);        //Set the servo control pin to high  
0068:  BSF    03.5
0069:  BCF    06.1
006A:  BCF    03.5
006B:  BSF    06.1
....................          SERVO_PIN_TO_BE_SET_HIGH_ON_NEXT_TIMER = 0;  
006C:  BCF    37.0
....................          set_timer1(65356-current_servo_position); //Set timer for the position high pulse 
006D:  MOVF   35,W
006E:  SUBLW  4C
006F:  MOVWF  5F
0070:  MOVLW  FF
0071:  MOVWF  60
0072:  MOVF   36,W
0073:  BTFSS  03.0
0074:  INCFSZ 36,W
0075:  SUBWF  60,F
0076:  MOVF   60,W
0077:  MOVWF  0F
0078:  MOVF   5F,W
0079:  MOVWF  0E
....................       }  
....................    else  
007A:  GOTO   08D
....................       {  
....................          output_low(servo_pin);                      // Set the servo control pin to low   
007B:  BSF    03.5
007C:  BCF    06.1
007D:  BCF    03.5
007E:  BCF    06.1
....................          SERVO_PIN_TO_BE_SET_HIGH_ON_NEXT_TIMER = 1;  
007F:  BSF    37.0
....................          set_timer1(servo_period+current_servo_position);          //Set timer for the low position the length is the difference between  
0080:  MOVF   35,W
0081:  ADDWF  33,W
0082:  MOVWF  5F
0083:  MOVF   34,W
0084:  MOVWF  60
0085:  MOVF   36,W
0086:  BTFSC  03.0
0087:  INCFSZ 36,W
0088:  ADDWF  60,F
0089:  MOVF   60,W
008A:  MOVWF  0F
008B:  MOVF   5F,W
008C:  MOVWF  0E
....................                                                      //the total int16 lenght - high pulse length 
....................       }   
.................... } 
....................  
....................  
.................... /* 
.................... #int_ccp2 is called on the falling edge of the encoder pulse. We calculate the time 
.................... between pulses.  
.................... TODO will have to put some kind of smoothing mechanism 
.................... */ 
008D:  BCF    0C.0
008E:  BCF    0A.3
008F:  GOTO   02C
.................... #int_ccp2 
.................... void isr2() 
.................... { 
.................... //timer0_since_last_reset = number_of_timer0_interupts_since_reset*256 + timer0; 
.................... //vSpeed = 65535-timer0_since_last_reset; 
.................... } 
....................  
....................  
0090:  BCF    0D.0
0091:  BCF    0A.3
0092:  GOTO   02C
.................... void main() 
.................... {   
*
0376:  CLRF   04
0377:  MOVLW  1F
0378:  ANDWF  03,F
0379:  BSF    03.5
037A:  BCF    06.3
037B:  BCF    03.5
037C:  BSF    06.3
037D:  BSF    03.5
037E:  BSF    1F.0
037F:  BSF    1F.1
0380:  BSF    1F.2
0381:  BCF    1F.3
0382:  MOVLW  07
0383:  MOVWF  1C
....................     
....................    setup_adc_ports(NO_ANALOGS); 
*
03A9:  BSF    03.5
03AA:  BSF    1F.0
03AB:  BSF    1F.1
03AC:  BSF    1F.2
03AD:  BCF    1F.3
....................    setup_adc(ADC_OFF); 
03AE:  BCF    03.5
03AF:  BCF    1F.0
....................    setup_spi(FALSE); 
03B0:  CLRF   14
....................     
....................    //setup_counters(RTCC_INTERNAL,RTCC_DIV_2); 
....................    setup_timer_1(T1_DISABLED); 
03B1:  CLRF   10
....................    setup_timer_2(T2_DISABLED,0,1); 
03B2:  MOVLW  00
03B3:  MOVWF  21
03B4:  MOVWF  12
03B5:  MOVLW  00
03B6:  BSF    03.5
03B7:  MOVWF  12
....................    setup_port_a(ALL_ANALOG); 
03B8:  BCF    1F.0
03B9:  BCF    1F.1
03BA:  BCF    1F.2
03BB:  BCF    1F.3
....................    setup_adc(ADC_CLOCK_INTERNAL); 
03BC:  BCF    1F.6
03BD:  BCF    03.5
03BE:  BSF    1F.6
03BF:  BSF    1F.7
03C0:  BSF    03.5
03C1:  BSF    1F.7
03C2:  BCF    03.5
03C3:  BSF    1F.0
....................     
....................    init_dac(); 
03C4:  GOTO   093
....................   
....................    setup_timer_1(T1_DIV_BY_2| T1_INTERNAL);  
03C5:  MOVLW  95
03C6:  MOVWF  10
....................    setup_timer_0(RTCC_INTERNAL|RTCC_DIV_128); 
03C7:  BSF    03.5
03C8:  MOVF   01,W
03C9:  ANDLW  C0
03CA:  IORLW  06
03CB:  MOVWF  01
....................    setup_ccp2(CCP_CAPTURE_RE);    // Configure CCP2 to capture fall 
03CC:  BCF    03.5
03CD:  BSF    2E.1
03CE:  MOVF   2E,W
03CF:  BSF    03.5
03D0:  MOVWF  07
03D1:  BCF    03.5
03D2:  CLRF   1D
03D3:  MOVLW  05
03D4:  MOVWF  1D
....................    enable_interrupts(INT_CCP2);   // Setup interrupt on falling edge 
03D5:  BSF    03.5
03D6:  BSF    0D.0
....................    enable_interrupts(INT_TIMER1);   // Setup interrupt on falling edge 
03D7:  BSF    0C.0
....................    enable_interrupts(GLOBAL); 
03D8:  MOVLW  C0
03D9:  BCF    03.5
03DA:  IORWF  0B,F
....................     
....................    while(TRUE) { 
....................   
....................       //GET INPUTS 
....................       //Vspeed happens in interrupts 
....................       set_adc_channel(Acaps_channel); 
03DB:  MOVLW  08
03DC:  MOVWF  21
03DD:  MOVF   1F,W
03DE:  ANDLW  C7
03DF:  IORWF  21,W
03E0:  MOVWF  1F
....................       ADC_DELAY; 
03E1:  MOVLW  C8
03E2:  MOVWF  47
03E3:  CALL   0AB
....................       Acaps = read_adc(); 
03E4:  BSF    1F.2
03E5:  BTFSC  1F.2
03E6:  GOTO   3E5
03E7:  BSF    03.5
03E8:  MOVF   1E,W
03E9:  BCF    03.5
03EA:  MOVWF  45
03EB:  MOVF   1E,W
03EC:  MOVWF  46
....................        
....................       set_adc_channel(Athrottle_channel); 
03ED:  MOVLW  00
03EE:  MOVWF  21
03EF:  MOVF   1F,W
03F0:  ANDLW  C7
03F1:  IORWF  21,W
03F2:  MOVWF  1F
....................       ADC_DELAY; 
03F3:  MOVLW  C8
03F4:  MOVWF  47
03F5:  CALL   0AB
....................       Athrottle = read_adc(); 
03F6:  BSF    1F.2
03F7:  BTFSC  1F.2
03F8:  GOTO   3F7
03F9:  BSF    03.5
03FA:  MOVF   1E,W
03FB:  BCF    03.5
03FC:  MOVWF  43
03FD:  MOVF   1E,W
03FE:  MOVWF  44
....................  
....................       //CONTROL BOX 
....................  
....................       //output_low(PIN_B1); 
....................       //delay_ms(1000); 
....................       //output_high(PIN_B1); 
....................       //delay_ms(1000); 
....................        
....................       //delay_ms(Athrottle); 
....................       //output_high(PIN_B1); 
....................       //delay_ms(Athrottle); 
....................       //output_low(PIN_B1); 
....................        
....................       current_servo_position=left_position+(Athrottle/1024.0)*(2500); 
03FF:  MOVF   44,W
0400:  MOVWF  50
0401:  MOVF   43,W
0402:  MOVWF  4F
0403:  CALL   0B9
0404:  MOVF   23,W
0405:  MOVWF  4A
0406:  MOVF   22,W
0407:  MOVWF  49
0408:  MOVF   21,W
0409:  MOVWF  48
040A:  MOVF   20,W
040B:  MOVWF  47
040C:  CLRF   4E
040D:  CLRF   4D
040E:  CLRF   4C
040F:  MOVLW  89
0410:  MOVWF  4B
0411:  GOTO   0D6
0412:  MOVF   20,W
0413:  MOVWF  47
0414:  MOVF   21,W
0415:  MOVWF  48
0416:  MOVF   22,W
0417:  MOVWF  49
0418:  MOVF   23,W
0419:  MOVWF  4A
041A:  MOVWF  4E
041B:  MOVF   22,W
041C:  MOVWF  4D
041D:  MOVF   21,W
041E:  MOVWF  4C
041F:  MOVF   20,W
0420:  MOVWF  4B
0421:  CLRF   52
0422:  MOVLW  40
0423:  MOVWF  51
0424:  MOVLW  1C
0425:  MOVWF  50
0426:  MOVLW  8A
0427:  MOVWF  4F
0428:  GOTO   1A1
0429:  MOVF   20,W
042A:  MOVWF  4B
042B:  MOVF   21,W
042C:  MOVWF  4C
042D:  MOVF   22,W
042E:  MOVWF  4D
042F:  MOVF   23,W
0430:  MOVWF  4E
0431:  MOVF   30,W
0432:  MOVWF  50
0433:  MOVF   2F,W
0434:  MOVWF  4F
0435:  CALL   0B9
0436:  BCF    03.1
0437:  MOVF   23,W
0438:  MOVWF  52
0439:  MOVF   22,W
043A:  MOVWF  51
043B:  MOVF   21,W
043C:  MOVWF  50
043D:  MOVF   20,W
043E:  MOVWF  4F
043F:  MOVF   4E,W
0440:  MOVWF  56
0441:  MOVF   4D,W
0442:  MOVWF  55
0443:  MOVF   4C,W
0444:  MOVWF  54
0445:  MOVF   4B,W
0446:  MOVWF  53
0447:  GOTO   217
0448:  MOVF   23,W
0449:  MOVWF  52
044A:  MOVF   22,W
044B:  MOVWF  51
044C:  MOVF   21,W
044D:  MOVWF  50
044E:  MOVF   20,W
044F:  MOVWF  4F
0450:  GOTO   356
0451:  MOVF   22,W
0452:  MOVWF  36
0453:  MOVF   21,W
0454:  MOVWF  35
....................       //printf("Analog Cap %d Analog Throttle %d\n",(int) Acaps, (int) Athrottle); 
....................        
....................     
....................       //SET OUTPUTS  
....................       //The writing of the ICEThrottle happens in interupts and all that is 
....................       //required is updating ICEthrottle 
....................       //write_dac(ELECthrottle); 
....................    } 
0455:  GOTO   3DB
....................     
....................  
.................... } 
....................  
....................  
....................  
0456:  GOTO   456

Configuration Fuses:
   Word  1: 373A   HS NOWDT NOPUT DEBUG NOPROTECT NOBROWNOUT NOLVP NOCPD NOWRT
